(dp0
S'linear_updates'
p1
F1.0
sS'vertical_updates'
p2
F1.0
sS'vertical_coefficients'
p3
(lp4
F1.0
aF1.66
aF3.47
asS'linear_coefficients'
p5
(lp6
F1.0
aF1.54
aF3.53
asS'testee'
p7
S'Jamie'
p8
sS'accuracy_updates'
p9
F1.0
sS'profile_filename'
p10
S'Profile_Jamie'
p11
sS'accuracy_coefficients'
p12
(lp13
F21.48
aF29.41
as.