(dp0
S'linear_updates'
p1
F1.0
sS'vertical_updates'
p2
F1.0
sS'vertical_coefficients'
p3
(lp4
F1.0
aF1.01
aF1.84
asS'linear_coefficients'
p5
(lp6
F1.0
aF1.49
aF3.13
asS'testee'
p7
S'Jacob'
p8
sS'accuracy_updates'
p9
F1.0
sS'profile_filename'
p10
S'Profile_Jacob'
p11
sS'accuracy_coefficients'
p12
(lp13
F32.65
aF39.35
as.